target datalayout = "e-m:e-p270:32:32-p271:32:32-p272:64:64-i64:64-i128:128-f80:128-n8:16:32:64-S128"
target triple = "x86_64-pc-linux-gnu"

%class.QString = type { %struct.QArrayDataPointer }
%struct.QArrayDataPointer = type { ptr, ptr, i64 }
%class.FileSetDialog = type <{ %class.GeometryStateDialog, ptr, ptr, ptr, i32, [4 x i8] }>
%class.GeometryStateDialog = type { %class.QDialog, %class.QString }
%class.QDialog = type { %class.QWidget }
%class.QWidget = type { %class.QObject, %class.QPaintDevice.base, ptr }
%class.QObject = type { ptr, %class.QScopedPointer }
%class.QScopedPointer = type { ptr }
%class.QPaintDevice.base = type <{ ptr, i16 }>
%struct._capture_file = type { ptr, i32, ptr, ptr, i32, i32, i32, i64, i16, i32, i32, i32, ptr, i32, i64, i32, i32, i32, i32, i32, i32, %struct.nstime_t, i32, ptr, ptr, ptr, i32, i32, i32, ptr, i32, i32, i32, i32, i32, i32, i32, i32, ptr, i32, i32, i32, %struct.packet_provider_data, i32, i32, %struct.epan_column_info, ptr, ptr, ptr, %struct.wtap_rec, %struct.Buffer, ptr, i64, i32 }
%struct.nstime_t = type { i64, i32 }
%struct.packet_provider_data = type { ptr, ptr, ptr, ptr, ptr, ptr }
%struct.epan_column_info = type { ptr, i32, ptr, ptr, ptr, %struct.col_expr_t, i32, ptr }
%struct.col_expr_t = type { ptr, ptr }
%struct.wtap_rec = type { i32, i32, i32, %struct.nstime_t, i32, %struct.nstime_t, i32, %union.anon, ptr, i32, %struct.Buffer }
%union.anon = type { %struct.wtap_packet_header }
%struct.wtap_packet_header = type { i32, i32, i32, i32, %union.wtap_pseudo_header }
%union.wtap_pseudo_header = type { %struct.erf_mc_phdr }
%struct.erf_mc_phdr = type { %struct.erf_phdr, [16 x %struct.erf_ehdr], %union.anon.2 }
%struct.erf_phdr = type { i64, i8, i8, i16, i16, i16 }
%struct.erf_ehdr = type { i64 }
%union.anon.2 = type { i32 }
%struct.Buffer = type { ptr, i64, i64, i64 }

; Function Attrs: mustprogress uwtable
define void @_ZN13FileSetDialog10fileOpenedEPK13_capture_file(ptr noundef nonnull align 8 dereferenceable(92) %0, ptr noundef %1) #0 align 2 {
  %3 = alloca ptr, align 8
  %4 = alloca ptr, align 8
  store ptr %0, ptr %3, align 8
  store ptr %1, ptr %4, align 8
  %5 = load ptr, ptr %3, align 8
  %6 = load ptr, ptr %4, align 8
  %7 = icmp ne ptr %6, null
  br i1 %7, label %9, label %8

8:                                                ; preds = %2
  br label %15

9:                                                ; preds = %2
  %10 = getelementptr inbounds %class.FileSetDialog, ptr %5, i32 0, i32 2
  %11 = load ptr, ptr %10, align 8
  call void @_ZN17FilesetEntryModel5clearEv(ptr noundef nonnull align 8 dereferenceable(40) %11)
  %12 = load ptr, ptr %4, align 8
  %13 = getelementptr inbounds %struct._capture_file, ptr %12, i32 0, i32 2
  %14 = load ptr, ptr %13, align 8
  call void @fileset_add_dir(ptr noundef %14, ptr noundef %5)
  br label %15

15:                                               ; preds = %9, %8
  ret void
}