; Function Attrs: mustprogress uwtable
define void @_ZN13FileSetDialog10fileOpenedEPK13_capture_file(ptr noundef nonnull align 8 dereferenceable(92) %0, ptr noundef readonly %1) local_unnamed_addr #0 align 2 {
  %.not = icmp eq ptr %1, null
  br i1 %.not, label %8, label %3

3:                                                ; preds = %2
  %4 = getelementptr inbounds i8, ptr %0, i64 72
  %5 = load ptr, ptr %4, align 8
  tail call void @_ZN17FilesetEntryModel5clearEv(ptr noundef nonnull align 8 dereferenceable(40) %5)
  %6 = getelementptr inbounds i8, ptr %1, i64 16
  %7 = load ptr, ptr %6, align 8
  tail call void @fileset_add_dir(ptr noundef %7, ptr noundef nonnull %0)
  br label %8

8:                                                ; preds = %2, %3
  ret void
}